target datalayout = "e-m:e-p270:32:32-p271:32:32-p272:64:64-i64:64-i128:128-f80:128-n8:16:32:64-S128"
target triple = "x86_64-pc-linux-gnu"

%struct.lua_State = type { %struct.GCRef, i8, i8, i8, i8, %struct.MRef, %struct.GCRef, ptr, ptr, %struct.MRef, %struct.MRef, %struct.GCRef, %struct.GCRef, ptr, i32 }
%struct.MRef = type { i64 }
%struct.GCRef = type { i64 }
%union.TValue = type { i64 }
%struct.GCfuncC = type { %struct.GCRef, i8, i8, i8, i8, %struct.GCRef, %struct.GCRef, %struct.MRef, ptr, [1 x %union.TValue] }
%struct.GCfuncL = type { %struct.GCRef, i8, i8, i8, i8, %struct.GCRef, %struct.GCRef, %struct.MRef, [1 x %struct.GCRef] }

@.str.4 = private unnamed_addr constant [24 x i8] c"store to dead GC object\00", align 1

; Function Attrs: alwaysinline nounwind uwtable
define internal void @checklivetv(ptr noundef %0, ptr noundef %1, ptr noundef %2) #1 {
  %4 = alloca ptr, align 8
  %5 = alloca ptr, align 8
  %6 = alloca ptr, align 8
  store ptr %0, ptr %4, align 8, !tbaa !4
  store ptr %1, ptr %5, align 8, !tbaa !17
  store ptr %2, ptr %6, align 8, !tbaa !25
  ret void
}

; Function Attrs: alwaysinline nounwind uwtable
define internal void @setgcVraw(ptr noundef %0, ptr noundef %1, i32 noundef %2) #1 {
  %4 = alloca ptr, align 8
  %5 = alloca ptr, align 8
  %6 = alloca i32, align 4
  store ptr %0, ptr %4, align 8, !tbaa !17
  store ptr %1, ptr %5, align 8, !tbaa !27
  store i32 %2, ptr %6, align 4, !tbaa !29
  %7 = load ptr, ptr %5, align 8, !tbaa !27
  %8 = ptrtoint ptr %7 to i64
  %9 = load i32, ptr %6, align 4, !tbaa !29
  %10 = zext i32 %9 to i64
  %11 = shl i64 %10, 47
  %12 = or i64 %8, %11
  %13 = load ptr, ptr %4, align 8, !tbaa !17
  %14 = getelementptr inbounds nuw %struct.GCRef, ptr %13, i32 0, i32 0
  store i64 %12, ptr %14, align 8, !tbaa !16
  ret void
}

; Function Attrs: alwaysinline nounwind uwtable
define internal void @setgcV(ptr noundef %0, ptr noundef %1, ptr noundef %2, i32 noundef %3) #1 {
  %5 = alloca ptr, align 8
  %6 = alloca ptr, align 8
  %7 = alloca ptr, align 8
  %8 = alloca i32, align 4
  store ptr %0, ptr %5, align 8, !tbaa !4
  store ptr %1, ptr %6, align 8, !tbaa !17
  store ptr %2, ptr %7, align 8, !tbaa !27
  store i32 %3, ptr %8, align 4, !tbaa !29
  %9 = load ptr, ptr %6, align 8, !tbaa !17
  %10 = load ptr, ptr %7, align 8, !tbaa !27
  %11 = load i32, ptr %8, align 4, !tbaa !29
  call void @setgcVraw(ptr noundef %9, ptr noundef %10, i32 noundef %11)
  %12 = load ptr, ptr %5, align 8, !tbaa !4
  %13 = load ptr, ptr %6, align 8, !tbaa !17
  call void @checklivetv(ptr noundef %12, ptr noundef %13, ptr noundef @.str.4)
  ret void
}

; Function Attrs: alwaysinline nounwind uwtable
define internal void @settabV(ptr noundef %0, ptr noundef %1, ptr noundef %2) #1 {
  %4 = alloca ptr, align 8
  %5 = alloca ptr, align 8
  %6 = alloca ptr, align 8
  store ptr %0, ptr %4, align 8, !tbaa !4
  store ptr %1, ptr %5, align 8, !tbaa !17
  store ptr %2, ptr %6, align 8, !tbaa !20
  %7 = load ptr, ptr %4, align 8, !tbaa !4
  %8 = load ptr, ptr %5, align 8, !tbaa !17
  %9 = load ptr, ptr %6, align 8, !tbaa !20
  call void @setgcV(ptr noundef %7, ptr noundef %8, ptr noundef %9, i32 noundef -12)
  ret void
}

; Function Attrs: nounwind uwtable
define internal i32 @lj_cf_getfenv(ptr noundef %0) #3 {
  %2 = alloca ptr, align 8
  %3 = alloca ptr, align 8
  %4 = alloca ptr, align 8
  %5 = alloca i32, align 4
  store ptr %0, ptr %2, align 8, !tbaa !4
  call void @llvm.lifetime.start.p0(i64 8, ptr %3) #11
  call void @llvm.lifetime.start.p0(i64 8, ptr %4) #11
  %6 = load ptr, ptr %2, align 8, !tbaa !4
  %7 = getelementptr inbounds nuw %struct.lua_State, ptr %6, i32 0, i32 7
  %8 = load ptr, ptr %7, align 8, !tbaa !32
  store ptr %8, ptr %4, align 8, !tbaa !17
  %9 = load ptr, ptr %4, align 8, !tbaa !17
  %10 = load ptr, ptr %2, align 8, !tbaa !4
  %11 = getelementptr inbounds nuw %struct.lua_State, ptr %10, i32 0, i32 8
  %12 = load ptr, ptr %11, align 8, !tbaa !9
  %13 = icmp ult ptr %9, %12
  br i1 %13, label %14, label %20

14:                                               ; preds = %1
  %15 = load ptr, ptr %4, align 8, !tbaa !17
  %16 = load i64, ptr %15, align 8, !tbaa !16
  %17 = ashr i64 %16, 47
  %18 = trunc i64 %17 to i32
  %19 = icmp eq i32 %18, -9
  br i1 %19, label %38, label %20

20:                                               ; preds = %14, %1
  call void @llvm.lifetime.start.p0(i64 4, ptr %5) #11
  %21 = load ptr, ptr %2, align 8, !tbaa !4
  %22 = call i32 @lj_lib_optint(ptr noundef %21, i32 noundef 1, i32 noundef 1)
  store i32 %22, ptr %5, align 4, !tbaa !29
  %23 = load i32, ptr %5, align 4, !tbaa !29
  %24 = icmp slt i32 %23, 0
  br i1 %24, label %25, label %27

25:                                               ; preds = %20
  %26 = load ptr, ptr %2, align 8, !tbaa !4
  call void @lj_err_arg(ptr noundef %26, i32 noundef 1, i32 noundef 1170) #10
  unreachable

27:                                               ; preds = %20
  %28 = load ptr, ptr %2, align 8, !tbaa !4
  %29 = load i32, ptr %5, align 4, !tbaa !29
  %30 = call ptr @lj_debug_frame(ptr noundef %28, i32 noundef %29, ptr noundef %5)
  store ptr %30, ptr %4, align 8, !tbaa !17
  %31 = load ptr, ptr %4, align 8, !tbaa !17
  %32 = icmp eq ptr %31, null
  br i1 %32, label %33, label %35

33:                                               ; preds = %27
  %34 = load ptr, ptr %2, align 8, !tbaa !4
  call void @lj_err_arg(ptr noundef %34, i32 noundef 1, i32 noundef 1170) #10
  unreachable

35:                                               ; preds = %27
  %36 = load ptr, ptr %4, align 8, !tbaa !17
  %37 = getelementptr inbounds %union.TValue, ptr %36, i32 -1
  store ptr %37, ptr %4, align 8, !tbaa !17
  call void @llvm.lifetime.end.p0(i64 4, ptr %5) #11
  br label %38

38:                                               ; preds = %35, %14
  %39 = load ptr, ptr %4, align 8, !tbaa !17
  %40 = getelementptr inbounds nuw %struct.GCRef, ptr %39, i32 0, i32 0
  %41 = load i64, ptr %40, align 8, !tbaa !16
  %42 = and i64 %41, 140737488355327
  %43 = inttoptr i64 %42 to ptr
  store ptr %43, ptr %3, align 8, !tbaa !34
  %44 = load ptr, ptr %2, align 8, !tbaa !4
  %45 = load ptr, ptr %2, align 8, !tbaa !4
  %46 = getelementptr inbounds nuw %struct.lua_State, ptr %45, i32 0, i32 8
  %47 = load ptr, ptr %46, align 8, !tbaa !9
  %48 = getelementptr inbounds nuw %union.TValue, ptr %47, i32 1
  store ptr %48, ptr %46, align 8, !tbaa !9
  %49 = load ptr, ptr %3, align 8, !tbaa !34
  %50 = getelementptr inbounds nuw %struct.GCfuncC, ptr %49, i32 0, i32 3
  %51 = load i8, ptr %50, align 2, !tbaa !16
  %52 = zext i8 %51 to i32
  %53 = icmp eq i32 %52, 0
  br i1 %53, label %54, label %60

54:                                               ; preds = %38
  %55 = load ptr, ptr %3, align 8, !tbaa !34
  %56 = getelementptr inbounds nuw %struct.GCfuncL, ptr %55, i32 0, i32 5
  %57 = getelementptr inbounds nuw %struct.GCRef, ptr %56, i32 0, i32 0
  %58 = load i64, ptr %57, align 8, !tbaa !16
  %59 = inttoptr i64 %58 to ptr
  br label %66

60:                                               ; preds = %38
  %61 = load ptr, ptr %2, align 8, !tbaa !4
  %62 = getelementptr inbounds nuw %struct.lua_State, ptr %61, i32 0, i32 12
  %63 = getelementptr inbounds nuw %struct.GCRef, ptr %62, i32 0, i32 0
  %64 = load i64, ptr %63, align 8, !tbaa !19
  %65 = inttoptr i64 %64 to ptr
  br label %66

66:                                               ; preds = %60, %54
  %67 = phi ptr [ %59, %54 ], [ %65, %60 ]
  call void @settabV(ptr noundef %44, ptr noundef %47, ptr noundef %67)
  call void @llvm.lifetime.end.p0(i64 8, ptr %4) #11
  call void @llvm.lifetime.end.p0(i64 8, ptr %3) #11
  ret i32 1
}