; Function Attrs: nounwind uwtable
define internal noundef i32 @lj_cf_getfenv(ptr noundef %0) #2 {
  %2 = alloca i32, align 4
  %3 = getelementptr inbounds nuw i8, ptr %0, i64 32
  %4 = load ptr, ptr %3, align 8, !tbaa !19
  %5 = getelementptr inbounds nuw i8, ptr %0, i64 40
  %6 = load ptr, ptr %5, align 8, !tbaa !4
  %7 = icmp ult ptr %4, %6
  br i1 %7, label %8, label %11

8:                                                ; preds = %1
  %9 = load i64, ptr %4, align 8, !tbaa !14
  %.mask = and i64 %9, -140737488355328
  %10 = icmp eq i64 %.mask, -1266637395197952
  br i1 %10, label %21, label %11

11:                                               ; preds = %8, %1
  call void @llvm.lifetime.start.p0(i64 4, ptr nonnull %2) #11
  %12 = tail call i32 @lj_lib_optint(ptr noundef nonnull %0, i32 noundef 1, i32 noundef 1) #11
  store i32 %12, ptr %2, align 4, !tbaa !33
  %13 = icmp slt i32 %12, 0
  br i1 %13, label %14, label %15

14:                                               ; preds = %11
  tail call void @lj_err_arg(ptr noundef nonnull %0, i32 noundef 1, i32 noundef 1170) #10
  unreachable

15:                                               ; preds = %11
  %16 = call ptr @lj_debug_frame(ptr noundef nonnull %0, i32 noundef %12, ptr noundef nonnull %2) #11
  %17 = icmp eq ptr %16, null
  br i1 %17, label %18, label %19

18:                                               ; preds = %15
  call void @lj_err_arg(ptr noundef nonnull %0, i32 noundef 1, i32 noundef 1170) #10
  unreachable

19:                                               ; preds = %15
  %20 = getelementptr inbounds i8, ptr %16, i64 -8
  call void @llvm.lifetime.end.p0(i64 4, ptr nonnull %2) #11
  %.pre = load i64, ptr %20, align 8, !tbaa !14
  %.pre19 = load ptr, ptr %5, align 8, !tbaa !4
  br label %21

21:                                               ; preds = %19, %8
  %22 = phi ptr [ %6, %8 ], [ %.pre19, %19 ]
  %23 = phi i64 [ %9, %8 ], [ %.pre, %19 ]
  %24 = and i64 %23, 140737488355327
  %25 = inttoptr i64 %24 to ptr
  %26 = getelementptr inbounds nuw i8, ptr %22, i64 8
  store ptr %26, ptr %5, align 8, !tbaa !4
  %27 = getelementptr inbounds nuw i8, ptr %25, i64 10
  %28 = load i8, ptr %27, align 2, !tbaa !14
  %29 = icmp eq i8 %28, 0
  %30 = getelementptr inbounds nuw i8, ptr %25, i64 16
  %31 = getelementptr inbounds nuw i8, ptr %0, i64 72
  %.in.in = select i1 %29, ptr %30, ptr %31
  %.in = load i64, ptr %.in.in, align 8, !tbaa !14
  %32 = or i64 %.in, -1688849860263936
  store i64 %32, ptr %22, align 8, !tbaa !14
  ret i32 1
}